target datalayout = "e-m:e-p270:32:32-p271:32:32-p272:64:64-i64:64-i128:128-f80:128-n8:16:32:64-S128"
target triple = "x86_64-pc-linux-gnu"

%struct.node = type { i32, ptr, %union.anon }
%union.anon = type { %struct.anon }
%struct.anon = type { ptr, ptr }

@dot_bitmap = internal global [32 x i8] c"\FF\FF\FF\FF\FF\FF\FF\FF\FF\FF\FF\FF\FF\FF\FF\FF\FF\FF\FF\FF\FF\FF\FF\FF\FF\FF\FF\FF\FF\FF\FF\FF", align 16

; Function Attrs: nounwind uwtable
define internal void @destroy_tree(ptr noundef %0) #0 {
  %2 = alloca ptr, align 8
  store ptr %0, ptr %2, align 8
  %3 = load ptr, ptr %2, align 8
  %4 = icmp ne ptr %3, null
  br i1 %4, label %6, label %5

5:                                                ; preds = %1
  br label %47

6:                                                ; preds = %1
  %7 = load ptr, ptr %2, align 8
  %8 = getelementptr inbounds %struct.node, ptr %7, i32 0, i32 0
  %9 = load i32, ptr %8, align 8
  switch i32 %9, label %40 [
    i32 1, label %10
    i32 2, label %10
    i32 3, label %10
    i32 5, label %19
    i32 0, label %39
    i32 4, label %39
  ]

10:                                               ; preds = %6, %6, %6
  %11 = load ptr, ptr %2, align 8
  %12 = getelementptr inbounds %struct.node, ptr %11, i32 0, i32 2
  %13 = getelementptr inbounds %struct.anon, ptr %12, i32 0, i32 0
  %14 = load ptr, ptr %13, align 8
  call void @destroy_tree(ptr noundef %14)
  %15 = load ptr, ptr %2, align 8
  %16 = getelementptr inbounds %struct.node, ptr %15, i32 0, i32 2
  %17 = getelementptr inbounds %struct.anon, ptr %16, i32 0, i32 1
  %18 = load ptr, ptr %17, align 8
  call void @destroy_tree(ptr noundef %18)
  br label %40

19:                                               ; preds = %6
  %20 = load ptr, ptr %2, align 8
  %21 = getelementptr inbounds %struct.node, ptr %20, i32 0, i32 2
  %22 = load ptr, ptr %21, align 8
  %23 = icmp ne ptr %22, @dot_bitmap
  br i1 %23, label %24, label %38

24:                                               ; preds = %19
  br label %25

25:                                               ; preds = %24
  %26 = load ptr, ptr %2, align 8
  %27 = getelementptr inbounds %struct.node, ptr %26, i32 0, i32 2
  %28 = load ptr, ptr %27, align 8
  %29 = icmp ne ptr null, %28
  br i1 %29, label %30, label %36

30:                                               ; preds = %25
  %31 = load ptr, ptr %2, align 8
  %32 = getelementptr inbounds %struct.node, ptr %31, i32 0, i32 2
  %33 = load ptr, ptr %32, align 8
  call void @free(ptr noundef %33) #7
  %34 = load ptr, ptr %2, align 8
  %35 = getelementptr inbounds %struct.node, ptr %34, i32 0, i32 2
  store ptr null, ptr %35, align 8
  br label %36

36:                                               ; preds = %30, %25
  br label %37

37:                                               ; preds = %36
  br label %38

38:                                               ; preds = %37, %19
  br label %40

39:                                               ; preds = %6, %6
  br label %40

40:                                               ; preds = %39, %38, %10, %6
  br label %41

41:                                               ; preds = %40
  %42 = load ptr, ptr %2, align 8
  %43 = icmp ne ptr null, %42
  br i1 %43, label %44, label %46

44:                                               ; preds = %41
  %45 = load ptr, ptr %2, align 8
  call void @free(ptr noundef %45) #7
  store ptr null, ptr %2, align 8
  br label %46

46:                                               ; preds = %44, %41
  br label %47

47:                                               ; preds = %46, %5
  ret void
}