; Function Attrs: nounwind uwtable
define internal fastcc void @destroy_tree(ptr noundef %0) unnamed_addr #0 {
  %.not = icmp eq ptr %0, null
  br i1 %.not, label %14, label %2

2:                                                ; preds = %1
  %3 = load i32, ptr %0, align 8
  switch i32 %3, label %13 [
    i32 1, label %4
    i32 2, label %4
    i32 3, label %4
    i32 5, label %9
  ]

4:                                                ; preds = %2, %2, %2
  %5 = getelementptr inbounds i8, ptr %0, i64 16
  %6 = load ptr, ptr %5, align 8
  tail call fastcc void @destroy_tree(ptr noundef %6)
  %7 = getelementptr inbounds i8, ptr %0, i64 24
  %8 = load ptr, ptr %7, align 8
  tail call fastcc void @destroy_tree(ptr noundef %8)
  br label %13

9:                                                ; preds = %2
  %10 = getelementptr inbounds i8, ptr %0, i64 16
  %11 = load ptr, ptr %10, align 8
  %.not11 = icmp eq ptr %11, @dot_bitmap
  %.not12 = icmp eq ptr %11, null
  %or.cond = or i1 %.not11, %.not12
  br i1 %or.cond, label %13, label %12

12:                                               ; preds = %9
  tail call void @free(ptr noundef %11) #8
  br label %13

13:                                               ; preds = %9, %12, %4, %2
  tail call void @free(ptr noundef nonnull %0) #8
  br label %14

14:                                               ; preds = %13, %1
  ret void
}